target datalayout = "e-m:e-p270:32:32-p271:32:32-p272:64:64-i64:64-i128:128-f80:128-n8:16:32:64-S128"
target triple = "x86_64-pc-linux-gnu"

%struct.ULocaleData = type { i8, ptr, ptr }

@.str = private unnamed_addr constant [14 x i8] c"icudt77l-lang\00", align 1

; Function Attrs: inlinehint mustprogress nounwind uwtable
define internal noundef signext i8 @_ZL9U_FAILURE10UErrorCode(i32 noundef %0) #2 {
  %2 = alloca i32, align 4
  store i32 %0, ptr %2, align 4, !tbaa !15
  %3 = load i32, ptr %2, align 4, !tbaa !15
  %4 = icmp sgt i32 %3, 0
  %5 = zext i1 %4 to i8
  ret i8 %5
}

; Function Attrs: mustprogress uwtable
define ptr @ulocdata_open_77(ptr noundef %0, ptr noundef %1) #1 {
  %3 = alloca ptr, align 8
  %4 = alloca ptr, align 8
  %5 = alloca ptr, align 8
  %6 = alloca ptr, align 8
  %7 = alloca i32, align 4
  %8 = alloca i32, align 4
  store ptr %0, ptr %4, align 8, !tbaa !17
  store ptr %1, ptr %5, align 8, !tbaa !22
  call void @llvm.lifetime.start.p0(i64 8, ptr %6) #9
  %9 = load ptr, ptr %5, align 8, !tbaa !22
  %10 = load i32, ptr %9, align 4, !tbaa !15
  %11 = call noundef signext i8 @_ZL9U_FAILURE10UErrorCode(i32 noundef %10)
  %12 = icmp ne i8 %11, 0
  br i1 %12, label %13, label %14

13:                                               ; preds = %2
  store ptr null, ptr %3, align 8
  store i32 1, ptr %7, align 4
  br label %52

14:                                               ; preds = %2
  %15 = call noalias ptr @uprv_malloc_77(i64 noundef 24) #10
  store ptr %15, ptr %6, align 8, !tbaa !23
  %16 = load ptr, ptr %6, align 8, !tbaa !23
  %17 = icmp eq ptr %16, null
  br i1 %17, label %18, label %20

18:                                               ; preds = %14
  %19 = load ptr, ptr %5, align 8, !tbaa !22
  store i32 7, ptr %19, align 4, !tbaa !15
  store ptr null, ptr %3, align 8
  store i32 1, ptr %7, align 4
  br label %52

20:                                               ; preds = %14
  %21 = load ptr, ptr %6, align 8, !tbaa !23
  %22 = getelementptr inbounds nuw %struct.ULocaleData, ptr %21, i32 0, i32 2
  store ptr null, ptr %22, align 8, !tbaa !25
  %23 = load ptr, ptr %6, align 8, !tbaa !23
  %24 = getelementptr inbounds nuw %struct.ULocaleData, ptr %23, i32 0, i32 0
  store i8 0, ptr %24, align 8, !tbaa !28
  %25 = load ptr, ptr %4, align 8, !tbaa !17
  %26 = load ptr, ptr %5, align 8, !tbaa !22
  %27 = call ptr @ures_open_77(ptr noundef null, ptr noundef %25, ptr noundef %26)
  %28 = load ptr, ptr %6, align 8, !tbaa !23
  %29 = getelementptr inbounds nuw %struct.ULocaleData, ptr %28, i32 0, i32 1
  store ptr %27, ptr %29, align 8, !tbaa !29
  %30 = load ptr, ptr %5, align 8, !tbaa !22
  %31 = load i32, ptr %30, align 4, !tbaa !15
  %32 = call noundef signext i8 @_ZL9U_FAILURE10UErrorCode(i32 noundef %31)
  %33 = icmp ne i8 %32, 0
  br i1 %33, label %34, label %36

34:                                               ; preds = %20
  %35 = load ptr, ptr %6, align 8, !tbaa !23
  call void @uprv_free_77(ptr noundef %35)
  store ptr null, ptr %3, align 8
  store i32 1, ptr %7, align 4
  br label %52

36:                                               ; preds = %20
  call void @llvm.lifetime.start.p0(i64 4, ptr %8) #9
  %37 = load ptr, ptr %5, align 8, !tbaa !22
  %38 = load i32, ptr %37, align 4, !tbaa !15
  store i32 %38, ptr %8, align 4, !tbaa !15
  %39 = load ptr, ptr %4, align 8, !tbaa !17
  %40 = load ptr, ptr %5, align 8, !tbaa !22
  %41 = call ptr @ures_open_77(ptr noundef @.str, ptr noundef %39, ptr noundef %40)
  %42 = load ptr, ptr %6, align 8, !tbaa !23
  %43 = getelementptr inbounds nuw %struct.ULocaleData, ptr %42, i32 0, i32 2
  store ptr %41, ptr %43, align 8, !tbaa !25
  %44 = load ptr, ptr %5, align 8, !tbaa !22
  %45 = load i32, ptr %44, align 4, !tbaa !15
  %46 = icmp eq i32 %45, 2
  br i1 %46, label %47, label %50

47:                                               ; preds = %36
  %48 = load i32, ptr %8, align 4, !tbaa !15
  %49 = load ptr, ptr %5, align 8, !tbaa !22
  store i32 %48, ptr %49, align 4, !tbaa !15
  br label %50

50:                                               ; preds = %47, %36
  %51 = load ptr, ptr %6, align 8, !tbaa !23
  store ptr %51, ptr %3, align 8
  store i32 1, ptr %7, align 4
  call void @llvm.lifetime.end.p0(i64 4, ptr %8) #9
  br label %52

52:                                               ; preds = %50, %34, %18, %13
  call void @llvm.lifetime.end.p0(i64 8, ptr %6) #9
  %53 = load ptr, ptr %3, align 8
  ret ptr %53
}