; Function Attrs: mustprogress uwtable
define noundef ptr @ulocdata_open_77(ptr noundef %0, ptr noundef %1) local_unnamed_addr #1 {
  %3 = load i32, ptr %1, align 4, !tbaa !13
  %4 = icmp slt i32 %3, 1
  br i1 %4, label %5, label %21

5:                                                ; preds = %2
  %6 = tail call noalias dereferenceable_or_null(24) ptr @uprv_malloc_77(i64 noundef 24) #14
  %7 = icmp eq ptr %6, null
  br i1 %7, label %8, label %9

8:                                                ; preds = %5
  store i32 7, ptr %1, align 4, !tbaa !13
  br label %21

9:                                                ; preds = %5
  %10 = getelementptr inbounds nuw i8, ptr %6, i64 16
  store ptr null, ptr %10, align 8, !tbaa !15
  store i8 0, ptr %6, align 8, !tbaa !18
  %11 = tail call ptr @ures_open_77(ptr noundef null, ptr noundef %0, ptr noundef nonnull %1)
  %12 = getelementptr inbounds nuw i8, ptr %6, i64 8
  store ptr %11, ptr %12, align 8, !tbaa !19
  %13 = load i32, ptr %1, align 4, !tbaa !13
  %14 = icmp slt i32 %13, 1
  br i1 %14, label %16, label %15

15:                                               ; preds = %9
  tail call void @uprv_free_77(ptr noundef nonnull %6)
  br label %21

16:                                               ; preds = %9
  %17 = tail call ptr @ures_open_77(ptr noundef nonnull @.str, ptr noundef %0, ptr noundef nonnull %1)
  store ptr %17, ptr %10, align 8, !tbaa !15
  %18 = load i32, ptr %1, align 4, !tbaa !13
  %19 = icmp eq i32 %18, 2
  br i1 %19, label %20, label %21

20:                                               ; preds = %16
  store i32 %13, ptr %1, align 4, !tbaa !13
  br label %21

21:                                               ; preds = %16, %20, %2, %15, %8
  %.0 = phi ptr [ null, %8 ], [ null, %15 ], [ null, %2 ], [ %6, %20 ], [ %6, %16 ]
  ret ptr %.0
}